(itools.sprite_rules
Sprite
p0
(dp1
S'frames'
p2
(dp3
S'idle'
p4
(dp5
I0
(lp6
NasI1
(lp7
(itools.sprite_rules
FrameData
p8
(dp9
S'y'
p10
F3.0
sS'x'
p11
F0.0
sS'w'
p12
F96.0
sS'h'
p13
F94.0
sbasI2
(lp14
NasI3
(lp15
Nasssb.