(icore.sprite_rules
Sprite
p0
(dp1
S'actions'
p2
(dp3
S'idle-s'
p4
(lp5
(I12
I35
I70
I70
tp6
asS'idle-w'
p7
(lp8
(I12
I35
I70
I70
tp9
asS'idle-n'
p10
(lp11
(I12
I35
I70
I70
tp12
asS'idle-e'
p13
(lp14
(I12
I35
I70
I70
tp15
assS'filename'
p16
S'monster'
p17
sb.