(itools.sprite_rules
Sprite
p0
(dp1
S'frames'
p2
(dp3
S'idle'
p4
(dp5
I0
(lp6
(itools.sprite_rules
FrameData
p7
(dp8
S'y'
p9
F8.0
sS'x'
p10
F10.0
sS'w'
p11
F69.0
sS'h'
p12
F116.0
sba(itools.sprite_rules
FrameData
p13
(dp14
g9
F8.0
sg10
F86.0
sg11
F69.0
sg12
F116.0
sba(itools.sprite_rules
FrameData
p15
(dp16
g9
F8.0
sg10
F161.0
sg11
F69.0
sg12
F116.0
sba(itools.sprite_rules
FrameData
p17
(dp18
g9
F8.0
sg10
F236.0
sg11
F69.0
sg12
F116.0
sba(itools.sprite_rules
FrameData
p19
(dp20
g9
F8.0
sg10
F310.0
sg11
F69.0
sg12
F116.0
sba(itools.sprite_rules
FrameData
p21
(dp22
g9
F8.0
sg10
F236.0
sg11
F69.0
sg12
F116.0
sba(itools.sprite_rules
FrameData
p23
(dp24
g9
F8.0
sg10
F161.0
sg11
F69.0
sg12
F116.0
sba(itools.sprite_rules
FrameData
p25
(dp26
g9
F8.0
sg10
F86.0
sg11
F69.0
sg12
F116.0
sba(itools.sprite_rules
FrameData
p27
(dp28
g9
F8.0
sg10
F10.0
sg11
F69.0
sg12
F116.0
sbasI1
(lp29
(itools.sprite_rules
FrameData
p30
(dp31
g9
F364.0
sg10
F3.0
sg11
F63.0
sg12
F122.0
sba(itools.sprite_rules
FrameData
p32
(dp33
g9
F364.0
sg10
F72.0
sg11
F63.0
sg12
F122.0
sba(itools.sprite_rules
FrameData
p34
(dp35
g9
F364.0
sg10
F140.0
sg11
F63.0
sg12
F122.0
sba(itools.sprite_rules
FrameData
p36
(dp37
g9
F364.0
sg10
F214.0
sg11
F63.0
sg12
F122.0
sba(itools.sprite_rules
FrameData
p38
(dp39
g9
F364.0
sg10
F283.0
sg11
F63.0
sg12
F122.0
sba(itools.sprite_rules
FrameData
p40
(dp41
g9
F364.0
sg10
F351.0
sg11
F63.0
sg12
F122.0
sba(itools.sprite_rules
FrameData
p42
(dp43
g9
F364.0
sg10
F422.0
sg11
F63.0
sg12
F122.0
sba(itools.sprite_rules
FrameData
p44
(dp45
g9
F364.0
sg10
F492.0
sg11
F63.0
sg12
F122.0
sba(itools.sprite_rules
FrameData
p46
(dp47
g9
F364.0
sg10
F558.0
sg11
F63.0
sg12
F122.0
sbasI2
(lp48
(itools.sprite_rules
FrameData
p49
(dp50
g9
F125.0
sg10
F49.0
sg11
F69.0
sg12
F117.0
sba(itools.sprite_rules
FrameData
p51
(dp52
g9
F125.0
sg10
F115.0
sg11
F69.0
sg12
F117.0
sba(itools.sprite_rules
FrameData
p53
(dp54
g9
F125.0
sg10
F185.0
sg11
F69.0
sg12
F117.0
sba(itools.sprite_rules
FrameData
p55
(dp56
g9
F125.0
sg10
F256.0
sg11
F69.0
sg12
F117.0
sba(itools.sprite_rules
FrameData
p57
(dp58
g9
F125.0
sg10
F324.0
sg11
F69.0
sg12
F117.0
sba(itools.sprite_rules
FrameData
p59
(dp60
g9
F125.0
sg10
F256.0
sg11
F69.0
sg12
F117.0
sba(itools.sprite_rules
FrameData
p61
(dp62
g9
F125.0
sg10
F185.0
sg11
F69.0
sg12
F117.0
sba(itools.sprite_rules
FrameData
p63
(dp64
g9
F125.0
sg10
F115.0
sg11
F69.0
sg12
F117.0
sba(itools.sprite_rules
FrameData
p65
(dp66
g9
F125.0
sg10
F49.0
sg11
F69.0
sg12
F117.0
sbasI3
(lp67
(itools.sprite_rules
FrameData
p68
(dp69
g9
F247.0
sg10
F1.0
sg11
F69.0
sg12
F117.0
sba(itools.sprite_rules
FrameData
p70
(dp71
g9
F247.0
sg10
F71.0
sg11
F69.0
sg12
F117.0
sba(itools.sprite_rules
FrameData
p72
(dp73
g9
F247.0
sg10
F146.0
sg11
F69.0
sg12
F117.0
sba(itools.sprite_rules
FrameData
p74
(dp75
g9
F247.0
sg10
F221.0
sg11
F69.0
sg12
F117.0
sba(itools.sprite_rules
FrameData
p76
(dp77
g9
F247.0
sg10
F295.0
sg11
F69.0
sg12
F117.0
sba(itools.sprite_rules
FrameData
p78
(dp79
g9
F247.0
sg10
F221.0
sg11
F69.0
sg12
F117.0
sba(itools.sprite_rules
FrameData
p80
(dp81
g9
F247.0
sg10
F146.0
sg11
F69.0
sg12
F117.0
sba(itools.sprite_rules
FrameData
p82
(dp83
g9
F247.0
sg10
F71.0
sg11
F69.0
sg12
F117.0
sba(itools.sprite_rules
FrameData
p84
(dp85
g9
F247.0
sg10
F1.0
sg11
F69.0
sg12
F117.0
sbasssb.