(icore.sprite_rules
Sprite
p0
(dp1
S'actions'
p2
(dp3
S'idle-s'
p4
(lp5
(I5
I0
I60
I120
tp6
a(I74
I0
I60
I120
tp7
a(I142
I0
I60
I120
tp8
a(I216
I0
I60
I120
tp9
a(I285
I0
I60
I120
tp10
a(I353
I0
I60
I120
tp11
a(I424
I0
I60
I120
tp12
a(I494
I0
I60
I120
tp13
a(I560
I0
I60
I120
tp14
asS'idle-w'
p15
(lp16
(I0
I123
I70
I110
tp17
a(I70
I123
I70
I110
tp18
a(I145
I123
I70
I110
tp19
a(I220
I123
I70
I110
tp20
a(I294
I123
I70
I110
tp21
a(I368
I123
I70
I110
tp22
a(I443
I123
I70
I110
tp23
a(I519
I123
I70
I110
tp24
a(I596
I123
I70
I110
tp25
asS'idle-n'
p26
(lp27
(I10
I360
I70
I110
tp28
a(I86
I360
I70
I110
tp29
a(I161
I360
I70
I110
tp30
a(I236
I360
I70
I110
tp31
a(I310
I360
I70
I110
tp32
a(I384
I360
I70
I110
tp33
a(I459
I360
I70
I110
tp34
a(I534
I360
I70
I110
tp35
a(I604
I360
I70
I110
tp36
asS'idle-e'
p37
(lp38
(I55
I240
I60
I120
tp39
a(I121
I240
I60
I120
tp40
a(I191
I240
I60
I120
tp41
a(I262
I240
I60
I120
tp42
a(I330
I240
I60
I120
tp43
a(I399
I240
I60
I120
tp44
a(I473
I240
I60
I120
tp45
a(I541
I240
I60
I120
tp46
a(I610
I240
I60
I120
tp47
assS'filename'
p48
S'reimu'
p49
sb.